target datalayout = "e-m:e-p270:32:32-p271:32:32-p272:64:64-i64:64-i128:128-f80:128-n8:16:32:64-S128"
target triple = "x86_64-pc-linux-gnu"

%struct.MSS3Context = type { ptr, ptr, i32, %struct.RangeCoder, [3 x %struct.BlockTypeContext], [3 x %struct.FillBlockCoder], [3 x %struct.ImageBlockCoder], [3 x %struct.DCTBlockCoder], [3 x %struct.HaarBlockCoder], [64 x i32], [256 x i32] }
%struct.RangeCoder = type { ptr, ptr, i32, i32, i32 }
%struct.BlockTypeContext = type { i32, [5 x %struct.Model] }
%struct.Model = type { [16 x i32], [16 x i32], i32, i32, i32, i32, i32 }
%struct.FillBlockCoder = type { i32, %struct.Model }
%struct.ImageBlockCoder = type { %struct.Model256, %struct.Model256, %struct.Model, [125 x %struct.Model] }
%struct.Model256 = type { [256 x i32], [256 x i32], i32, [68 x i32], i32, i32, i32, i32 }
%struct.DCTBlockCoder = type { ptr, i64, i32, i32, [64 x i16], %struct.Model, %struct.Model2, %struct.Model256 }
%struct.Model2 = type { i32, i32, i32, i32, i32, i32 }
%struct.HaarBlockCoder = type { i32, i32, %struct.Model256, %struct.Model }

; Function Attrs: cold nounwind optsize uwtable
define internal void @model_init(ptr noundef %0, i32 noundef %1) #0 {
  %3 = alloca ptr, align 8
  %4 = alloca i32, align 4
  store ptr %0, ptr %3, align 8, !tbaa !74
  store i32 %1, ptr %4, align 4, !tbaa !38
  %5 = load i32, ptr %4, align 4, !tbaa !38
  %6 = load ptr, ptr %3, align 8, !tbaa !74
  %7 = getelementptr inbounds nuw %struct.Model, ptr %6, i32 0, i32 2
  store i32 %5, ptr %7, align 4, !tbaa !76
  %8 = load i32, ptr %4, align 4, !tbaa !38
  %9 = mul nsw i32 8, %8
  %10 = add nsw i32 %9, 48
  %11 = load ptr, ptr %3, align 8, !tbaa !74
  %12 = getelementptr inbounds nuw %struct.Model, ptr %11, i32 0, i32 5
  store i32 %10, ptr %12, align 4, !tbaa !77
  %13 = load ptr, ptr %3, align 8, !tbaa !74
  call void @model_reset(ptr noundef %13)
  ret void
}

; Function Attrs: cold nounwind optsize uwtable
define internal void @init_coders(ptr noundef %0) #0 {
  %2 = alloca ptr, align 8
  %3 = alloca i32, align 4
  %4 = alloca i32, align 4
  store ptr %0, ptr %2, align 8, !tbaa !29
  call void @llvm.lifetime.start.p0(i64 4, ptr %3) #8
  call void @llvm.lifetime.start.p0(i64 4, ptr %4) #8
  store i32 0, ptr %3, align 4, !tbaa !38
  br label %5

5:                                                ; preds = %91, %1
  %6 = load i32, ptr %3, align 4, !tbaa !38
  %7 = icmp slt i32 %6, 3
  br i1 %7, label %8, label %94

8:                                                ; preds = %5
  store i32 0, ptr %4, align 4, !tbaa !38
  br label %9

9:                                                ; preds = %22, %8
  %10 = load i32, ptr %4, align 4, !tbaa !38
  %11 = icmp slt i32 %10, 5
  br i1 %11, label %12, label %25

12:                                               ; preds = %9
  %13 = load ptr, ptr %2, align 8, !tbaa !29
  %14 = getelementptr inbounds nuw %struct.MSS3Context, ptr %13, i32 0, i32 4
  %15 = load i32, ptr %3, align 4, !tbaa !38
  %16 = sext i32 %15 to i64
  %17 = getelementptr inbounds [3 x %struct.BlockTypeContext], ptr %14, i64 0, i64 %16
  %18 = getelementptr inbounds nuw %struct.BlockTypeContext, ptr %17, i32 0, i32 1
  %19 = load i32, ptr %4, align 4, !tbaa !38
  %20 = sext i32 %19 to i64
  %21 = getelementptr inbounds [5 x %struct.Model], ptr %18, i64 0, i64 %20
  call void @model_init(ptr noundef %21, i32 noundef 5) #9
  br label %22

22:                                               ; preds = %12
  %23 = load i32, ptr %4, align 4, !tbaa !38
  %24 = add nsw i32 %23, 1
  store i32 %24, ptr %4, align 4, !tbaa !38
  br label %9, !llvm.loop !71

25:                                               ; preds = %9
  %26 = load ptr, ptr %2, align 8, !tbaa !29
  %27 = getelementptr inbounds nuw %struct.MSS3Context, ptr %26, i32 0, i32 5
  %28 = load i32, ptr %3, align 4, !tbaa !38
  %29 = sext i32 %28 to i64
  %30 = getelementptr inbounds [3 x %struct.FillBlockCoder], ptr %27, i64 0, i64 %29
  %31 = getelementptr inbounds nuw %struct.FillBlockCoder, ptr %30, i32 0, i32 1
  call void @model_init(ptr noundef %31, i32 noundef 12) #9
  %32 = load ptr, ptr %2, align 8, !tbaa !29
  %33 = getelementptr inbounds nuw %struct.MSS3Context, ptr %32, i32 0, i32 6
  %34 = load i32, ptr %3, align 4, !tbaa !38
  %35 = sext i32 %34 to i64
  %36 = getelementptr inbounds [3 x %struct.ImageBlockCoder], ptr %33, i64 0, i64 %35
  %37 = getelementptr inbounds nuw %struct.ImageBlockCoder, ptr %36, i32 0, i32 0
  call void @model256_init(ptr noundef %37) #9
  %38 = load ptr, ptr %2, align 8, !tbaa !29
  %39 = getelementptr inbounds nuw %struct.MSS3Context, ptr %38, i32 0, i32 6
  %40 = load i32, ptr %3, align 4, !tbaa !38
  %41 = sext i32 %40 to i64
  %42 = getelementptr inbounds [3 x %struct.ImageBlockCoder], ptr %39, i64 0, i64 %41
  %43 = getelementptr inbounds nuw %struct.ImageBlockCoder, ptr %42, i32 0, i32 1
  call void @model256_init(ptr noundef %43) #9
  %44 = load ptr, ptr %2, align 8, !tbaa !29
  %45 = getelementptr inbounds nuw %struct.MSS3Context, ptr %44, i32 0, i32 6
  %46 = load i32, ptr %3, align 4, !tbaa !38
  %47 = sext i32 %46 to i64
  %48 = getelementptr inbounds [3 x %struct.ImageBlockCoder], ptr %45, i64 0, i64 %47
  %49 = getelementptr inbounds nuw %struct.ImageBlockCoder, ptr %48, i32 0, i32 2
  call void @model_init(ptr noundef %49, i32 noundef 3) #9
  store i32 0, ptr %4, align 4, !tbaa !38
  br label %50

50:                                               ; preds = %63, %25
  %51 = load i32, ptr %4, align 4, !tbaa !38
  %52 = icmp slt i32 %51, 125
  br i1 %52, label %53, label %66

53:                                               ; preds = %50
  %54 = load ptr, ptr %2, align 8, !tbaa !29
  %55 = getelementptr inbounds nuw %struct.MSS3Context, ptr %54, i32 0, i32 6
  %56 = load i32, ptr %3, align 4, !tbaa !38
  %57 = sext i32 %56 to i64
  %58 = getelementptr inbounds [3 x %struct.ImageBlockCoder], ptr %55, i64 0, i64 %57
  %59 = getelementptr inbounds nuw %struct.ImageBlockCoder, ptr %58, i32 0, i32 3
  %60 = load i32, ptr %4, align 4, !tbaa !38
  %61 = sext i32 %60 to i64
  %62 = getelementptr inbounds [125 x %struct.Model], ptr %59, i64 0, i64 %61
  call void @model_init(ptr noundef %62, i32 noundef 5) #9
  br label %63

63:                                               ; preds = %53
  %64 = load i32, ptr %4, align 4, !tbaa !38
  %65 = add nsw i32 %64, 1
  store i32 %65, ptr %4, align 4, !tbaa !38
  br label %50, !llvm.loop !72

66:                                               ; preds = %50
  %67 = load ptr, ptr %2, align 8, !tbaa !29
  %68 = getelementptr inbounds nuw %struct.MSS3Context, ptr %67, i32 0, i32 7
  %69 = load i32, ptr %3, align 4, !tbaa !38
  %70 = sext i32 %69 to i64
  %71 = getelementptr inbounds [3 x %struct.DCTBlockCoder], ptr %68, i64 0, i64 %70
  %72 = getelementptr inbounds nuw %struct.DCTBlockCoder, ptr %71, i32 0, i32 5
  call void @model_init(ptr noundef %72, i32 noundef 12) #9
  %73 = load ptr, ptr %2, align 8, !tbaa !29
  %74 = getelementptr inbounds nuw %struct.MSS3Context, ptr %73, i32 0, i32 7
  %75 = load i32, ptr %3, align 4, !tbaa !38
  %76 = sext i32 %75 to i64
  %77 = getelementptr inbounds [3 x %struct.DCTBlockCoder], ptr %74, i64 0, i64 %76
  %78 = getelementptr inbounds nuw %struct.DCTBlockCoder, ptr %77, i32 0, i32 7
  call void @model256_init(ptr noundef %78) #9
  %79 = load ptr, ptr %2, align 8, !tbaa !29
  %80 = getelementptr inbounds nuw %struct.MSS3Context, ptr %79, i32 0, i32 8
  %81 = load i32, ptr %3, align 4, !tbaa !38
  %82 = sext i32 %81 to i64
  %83 = getelementptr inbounds [3 x %struct.HaarBlockCoder], ptr %80, i64 0, i64 %82
  %84 = getelementptr inbounds nuw %struct.HaarBlockCoder, ptr %83, i32 0, i32 3
  call void @model_init(ptr noundef %84, i32 noundef 12) #9
  %85 = load ptr, ptr %2, align 8, !tbaa !29
  %86 = getelementptr inbounds nuw %struct.MSS3Context, ptr %85, i32 0, i32 8
  %87 = load i32, ptr %3, align 4, !tbaa !38
  %88 = sext i32 %87 to i64
  %89 = getelementptr inbounds [3 x %struct.HaarBlockCoder], ptr %86, i64 0, i64 %88
  %90 = getelementptr inbounds nuw %struct.HaarBlockCoder, ptr %89, i32 0, i32 2
  call void @model256_init(ptr noundef %90) #9
  br label %91

91:                                               ; preds = %66
  %92 = load i32, ptr %3, align 4, !tbaa !38
  %93 = add nsw i32 %92, 1
  store i32 %93, ptr %3, align 4, !tbaa !38
  br label %5, !llvm.loop !73

94:                                               ; preds = %5
  call void @llvm.lifetime.end.p0(i64 4, ptr %4) #8
  call void @llvm.lifetime.end.p0(i64 4, ptr %3) #8
  ret void
}